; ModuleID = '43/760.cpp'
source_filename = "43/760.cpp"
target datalayout = "e-m:e-p270:32:32-p271:32:32-p272:64:64-i64:64-f80:128-n8:16:32:64-S128"
target triple = "x86_64-pc-linux-gnu"

%"class.std::ios_base::Init" = type { i8 }
%"class.std::basic_istream" = type { i32 (...)**, i64, %"class.std::basic_ios" }
%"class.std::basic_ios" = type { %"class.std::ios_base", %"class.std::basic_ostream"*, i8, i8, %"class.std::basic_streambuf"*, %"class.std::ctype"*, %"class.std::num_put"*, %"class.std::num_get"* }
%"class.std::ios_base" = type { i32 (...)**, i64, i64, i32, i32, i32, %"struct.std::ios_base::_Callback_list"*, %"struct.std::ios_base::_Words", [8 x %"struct.std::ios_base::_Words"], i32, %"struct.std::ios_base::_Words"*, %"class.std::locale" }
%"struct.std::ios_base::_Callback_list" = type { %"struct.std::ios_base::_Callback_list"*, void (i32, %"class.std::ios_base"*, i32)*, i32, i32 }
%"struct.std::ios_base::_Words" = type { i8*, i64 }
%"class.std::locale" = type { %"class.std::locale::_Impl"* }
%"class.std::locale::_Impl" = type { i32, %"class.std::locale::facet"**, i64, %"class.std::locale::facet"**, i8** }
%"class.std::locale::facet" = type <{ i32 (...)**, i32, [4 x i8] }>
%"class.std::basic_ostream" = type { i32 (...)**, %"class.std::basic_ios" }
%"class.std::basic_streambuf" = type { i32 (...)**, i8*, i8*, i8*, i8*, i8*, i8*, %"class.std::locale" }
%"class.std::ctype" = type <{ %"class.std::locale::facet.base", [4 x i8], %struct.__locale_struct*, i8, [7 x i8], i32*, i32*, i16*, i8, [256 x i8], [256 x i8], i8, [6 x i8] }>
%"class.std::locale::facet.base" = type <{ i32 (...)**, i32 }>
%struct.__locale_struct = type { [13 x %struct.__locale_data*], i16*, i32*, i32*, [13 x i8*] }
%struct.__locale_data = type opaque
%"class.std::num_put" = type { %"class.std::locale::facet.base", [4 x i8] }
%"class.std::num_get" = type { %"class.std::locale::facet.base", [4 x i8] }

@_ZStL8__ioinit = internal global %"class.std::ios_base::Init" zeroinitializer, align 1
@__dso_handle = external hidden global i8
@_ZSt3cin = external dso_local global %"class.std::basic_istream", align 8
@_ZSt4cout = external dso_local global %"class.std::basic_ostream", align 8
@.str = private unnamed_addr constant [2 x i8] c" \00", align 1
@llvm.global_ctors = appending global [1 x { i32, void ()*, i8* }] [{ i32, void ()*, i8* } { i32 65535, void ()* @_GLOBAL__sub_I_760.cpp, i8* null }]

; Function Attrs: noinline uwtable
define internal void @__cxx_global_var_init() #0 section ".text.startup" {
  call void @_ZNSt8ios_base4InitC1Ev(%"class.std::ios_base::Init"* @_ZStL8__ioinit)
  %1 = call i32 @__cxa_atexit(void (i8*)* bitcast (void (%"class.std::ios_base::Init"*)* @_ZNSt8ios_base4InitD1Ev to void (i8*)*), i8* getelementptr inbounds (%"class.std::ios_base::Init", %"class.std::ios_base::Init"* @_ZStL8__ioinit, i32 0, i32 0), i8* @__dso_handle) #3
  ret void
}

declare dso_local void @_ZNSt8ios_base4InitC1Ev(%"class.std::ios_base::Init"*) unnamed_addr #1

; Function Attrs: nounwind
declare dso_local void @_ZNSt8ios_base4InitD1Ev(%"class.std::ios_base::Init"*) unnamed_addr #2

; Function Attrs: nounwind
declare dso_local i32 @__cxa_atexit(void (i8*)*, i8*, i8*) #3

; Function Attrs: noinline norecurse uwtable
define dso_local i32 @main() #4 {
  %1 = alloca i32, align 4
  %2 = alloca i32, align 4
  %3 = alloca double, align 8
  %4 = alloca double, align 8
  %5 = alloca i32, align 4
  %6 = alloca i32, align 4
  store i32 0, i32* %1, align 4
  %7 = call dereferenceable(280) %"class.std::basic_istream"* @_ZNSirsERi(%"class.std::basic_istream"* @_ZSt3cin, i32* dereferenceable(4) %2)
  store double 3.000000e+00, double* %3, align 8
  br label %8

8:                                                ; preds = %77, %0
  %9 = load double, double* %3, align 8
  %10 = load i32, i32* %2, align 4
  %11 = sdiv i32 %10, 2
  %12 = sitofp i32 %11 to double
  %13 = fcmp ole double %9, %12
  br i1 %13, label %14, label %80

14:                                               ; preds = %8
  store i32 2, i32* %5, align 4
  br label %15

15:                                               ; preds = %29, %14
  %16 = load i32, i32* %5, align 4
  %17 = load double, double* %3, align 8
  %18 = call double @sqrt(double %17) #3
  %19 = fptosi double %18 to i32
  %20 = icmp sle i32 %16, %19
  br i1 %20, label %21, label %32

21:                                               ; preds = %15
  %22 = load double, double* %3, align 8
  %23 = fptosi double %22 to i32
  %24 = load i32, i32* %5, align 4
  %25 = srem i32 %23, %24
  %26 = icmp eq i32 %25, 0
  br i1 %26, label %27, label %28

27:                                               ; preds = %21
  br label %32

28:                                               ; preds = %21
  br label %29

29:                                               ; preds = %28
  %30 = load i32, i32* %5, align 4
  %31 = add nsw i32 %30, 1
  store i32 %31, i32* %5, align 4
  br label %15

32:                                               ; preds = %27, %15
  %33 = load i32, i32* %5, align 4
  %34 = load double, double* %3, align 8
  %35 = call double @sqrt(double %34) #3
  %36 = fptosi double %35 to i32
  %37 = add nsw i32 %36, 1
  %38 = icmp eq i32 %33, %37
  br i1 %38, label %39, label %76

39:                                               ; preds = %32
  %40 = load i32, i32* %2, align 4
  %41 = sitofp i32 %40 to double
  %42 = load double, double* %3, align 8
  %43 = fsub double %41, %42
  store double %43, double* %4, align 8
  store i32 2, i32* %6, align 4
  br label %44

44:                                               ; preds = %58, %39
  %45 = load i32, i32* %6, align 4
  %46 = load double, double* %4, align 8
  %47 = call double @sqrt(double %46) #3
  %48 = fptosi double %47 to i32
  %49 = icmp sle i32 %45, %48
  br i1 %49, label %50, label %61

50:                                               ; preds = %44
  %51 = load double, double* %4, align 8
  %52 = fptosi double %51 to i32
  %53 = load i32, i32* %6, align 4
  %54 = srem i32 %52, %53
  %55 = icmp eq i32 %54, 0
  br i1 %55, label %56, label %57

56:                                               ; preds = %50
  br label %61

57:                                               ; preds = %50
  br label %58

58:                                               ; preds = %57
  %59 = load i32, i32* %6, align 4
  %60 = add nsw i32 %59, 1
  store i32 %60, i32* %6, align 4
  br label %44

61:                                               ; preds = %56, %44
  %62 = load i32, i32* %6, align 4
  %63 = load double, double* %4, align 8
  %64 = call double @sqrt(double %63) #3
  %65 = fptosi double %64 to i32
  %66 = add nsw i32 %65, 1
  %67 = icmp eq i32 %62, %66
  br i1 %67, label %68, label %75

68:                                               ; preds = %61
  %69 = load double, double* %3, align 8
  %70 = call dereferenceable(272) %"class.std::basic_ostream"* @_ZNSolsEd(%"class.std::basic_ostream"* @_ZSt4cout, double %69)
  %71 = call dereferenceable(272) %"class.std::basic_ostream"* @_ZStlsISt11char_traitsIcEERSt13basic_ostreamIcT_ES5_PKc(%"class.std::basic_ostream"* dereferenceable(272) %70, i8* getelementptr inbounds ([2 x i8], [2 x i8]* @.str, i64 0, i64 0))
  %72 = load double, double* %4, align 8
  %73 = call dereferenceable(272) %"class.std::basic_ostream"* @_ZNSolsEd(%"class.std::basic_ostream"* %71, double %72)
  %74 = call dereferenceable(272) %"class.std::basic_ostream"* @_ZNSolsEPFRSoS_E(%"class.std::basic_ostream"* %73, %"class.std::basic_ostream"* (%"class.std::basic_ostream"*)* @_ZSt4endlIcSt11char_traitsIcEERSt13basic_ostreamIT_T0_ES6_)
  br label %75

75:                                               ; preds = %68, %61
  br label %76

76:                                               ; preds = %75, %32
  br label %77

77:                                               ; preds = %76
  %78 = load double, double* %3, align 8
  %79 = fadd double %78, 2.000000e+00
  store double %79, double* %3, align 8
  br label %8

80:                                               ; preds = %8
  ret i32 0
}

declare dso_local dereferenceable(280) %"class.std::basic_istream"* @_ZNSirsERi(%"class.std::basic_istream"*, i32* dereferenceable(4)) #1

; Function Attrs: nounwind
declare dso_local double @sqrt(double) #2

declare dso_local dereferenceable(272) %"class.std::basic_ostream"* @_ZStlsISt11char_traitsIcEERSt13basic_ostreamIcT_ES5_PKc(%"class.std::basic_ostream"* dereferenceable(272), i8*) #1

declare dso_local dereferenceable(272) %"class.std::basic_ostream"* @_ZNSolsEd(%"class.std::basic_ostream"*, double) #1

declare dso_local dereferenceable(272) %"class.std::basic_ostream"* @_ZNSolsEPFRSoS_E(%"class.std::basic_ostream"*, %"class.std::basic_ostream"* (%"class.std::basic_ostream"*)*) #1

declare dso_local dereferenceable(272) %"class.std::basic_ostream"* @_ZSt4endlIcSt11char_traitsIcEERSt13basic_ostreamIT_T0_ES6_(%"class.std::basic_ostream"* dereferenceable(272)) #1

; Function Attrs: noinline uwtable
define internal void @_GLOBAL__sub_I_760.cpp() #0 section ".text.startup" {
  call void @__cxx_global_var_init()
  ret void
}


!llvm.module.flags = !{!0}
!llvm.ident = !{!1}

!0 = !{i32 1, !"wchar_size", i32 4}
!1 = !{!"clang version 10.0.0-4ubuntu1 "}
